target datalayout = "e-m:e-p270:32:32-p271:32:32-p272:64:64-i64:64-i128:128-f80:128-n8:16:32:64-S128"
target triple = "x86_64-pc-linux-gnu"

%struct.ssl_st = type { i32, i16, i16, ptr, ptr, ptr, ptr, ptr, i32, i32, ptr, ptr, i32, i32, ptr, ptr, ptr, ptr, ptr, ptr, ptr, ptr, i32, i32, [32 x i8], ptr, ptr, ptr, ptr, ptr, ptr, ptr, i64, %struct.crypto_ex_data_st, ptr, i32, i32, i32, i32, i16, ptr, i32, i64, ptr, ptr, ptr, ptr, ptr, ptr, i32, i32, ptr, ptr, i8, i8, i32 }
%struct.crypto_ex_data_st = type { ptr }
%struct.cert_st = type { ptr, ptr, ptr, ptr, i32, i32, ptr, ptr, ptr, i64, ptr, i64, ptr, ptr, ptr }

@.str = private unnamed_addr constant [117 x i8] c"generated/home/dtcxzyw/WorkSpace/Projects/compilers/llvm-opt-benchmark/bench/libquic/libquic/boringssl/ssl/ssl_rsa.c\00", align 1

; Function Attrs: nounwind uwtable
define hidden i32 @SSL_set_private_key_digest_prefs(ptr noundef %0, ptr noundef %1, i64 noundef %2) #0 {
  %4 = alloca i32, align 4
  %5 = alloca ptr, align 8
  %6 = alloca ptr, align 8
  %7 = alloca i64, align 8
  store ptr %0, ptr %5, align 8, !tbaa !6
  store ptr %1, ptr %6, align 8, !tbaa !65
  store i64 %2, ptr %7, align 8, !tbaa !54
  %8 = load ptr, ptr %5, align 8, !tbaa !6
  %9 = getelementptr inbounds nuw %struct.ssl_st, ptr %8, i32 0, i32 21
  %10 = load ptr, ptr %9, align 8, !tbaa !13
  %11 = getelementptr inbounds nuw %struct.cert_st, ptr %10, i32 0, i32 10
  %12 = load ptr, ptr %11, align 8, !tbaa !66
  call void @free(ptr noundef %12) #4
  %13 = load ptr, ptr %5, align 8, !tbaa !6
  %14 = getelementptr inbounds nuw %struct.ssl_st, ptr %13, i32 0, i32 21
  %15 = load ptr, ptr %14, align 8, !tbaa !13
  %16 = getelementptr inbounds nuw %struct.cert_st, ptr %15, i32 0, i32 11
  store i64 0, ptr %16, align 8, !tbaa !67
  %17 = load ptr, ptr %6, align 8, !tbaa !65
  %18 = load i64, ptr %7, align 8, !tbaa !54
  %19 = mul i64 %18, 4
  %20 = call ptr @BUF_memdup(ptr noundef %17, i64 noundef %19)
  %21 = load ptr, ptr %5, align 8, !tbaa !6
  %22 = getelementptr inbounds nuw %struct.ssl_st, ptr %21, i32 0, i32 21
  %23 = load ptr, ptr %22, align 8, !tbaa !13
  %24 = getelementptr inbounds nuw %struct.cert_st, ptr %23, i32 0, i32 10
  store ptr %20, ptr %24, align 8, !tbaa !66
  %25 = load ptr, ptr %5, align 8, !tbaa !6
  %26 = getelementptr inbounds nuw %struct.ssl_st, ptr %25, i32 0, i32 21
  %27 = load ptr, ptr %26, align 8, !tbaa !13
  %28 = getelementptr inbounds nuw %struct.cert_st, ptr %27, i32 0, i32 10
  %29 = load ptr, ptr %28, align 8, !tbaa !66
  %30 = icmp eq ptr %29, null
  br i1 %30, label %31, label %32

31:                                               ; preds = %3
  call void @ERR_put_error(i32 noundef 16, i32 noundef 0, i32 noundef 65, ptr noundef @.str, i32 noundef 341)
  store i32 0, ptr %4, align 4
  br label %38

32:                                               ; preds = %3
  %33 = load i64, ptr %7, align 8, !tbaa !54
  %34 = load ptr, ptr %5, align 8, !tbaa !6
  %35 = getelementptr inbounds nuw %struct.ssl_st, ptr %34, i32 0, i32 21
  %36 = load ptr, ptr %35, align 8, !tbaa !13
  %37 = getelementptr inbounds nuw %struct.cert_st, ptr %36, i32 0, i32 11
  store i64 %33, ptr %37, align 8, !tbaa !67
  store i32 1, ptr %4, align 4
  br label %38

38:                                               ; preds = %32, %31
  %39 = load i32, ptr %4, align 4
  ret i32 %39
}