; Function Attrs: nounwind uwtable
define hidden range(i32 0, 2) i32 @SSL_set_private_key_digest_prefs(ptr noundef readonly captures(none) %0, ptr noundef %1, i64 noundef %2) local_unnamed_addr #0 {
  %4 = getelementptr inbounds nuw i8, ptr %0, i64 136
  %5 = load ptr, ptr %4, align 8, !tbaa !6
  %6 = getelementptr inbounds nuw i8, ptr %5, i64 72
  %7 = load ptr, ptr %6, align 8, !tbaa !54
  tail call void @free(ptr noundef %7) #6
  %8 = load ptr, ptr %4, align 8, !tbaa !6
  %9 = getelementptr inbounds nuw i8, ptr %8, i64 80
  store i64 0, ptr %9, align 8, !tbaa !55
  %10 = shl i64 %2, 2
  %11 = tail call ptr @BUF_memdup(ptr noundef %1, i64 noundef %10) #6
  %12 = load ptr, ptr %4, align 8, !tbaa !6
  %13 = getelementptr inbounds nuw i8, ptr %12, i64 72
  store ptr %11, ptr %13, align 8, !tbaa !54
  %14 = icmp eq ptr %11, null
  br i1 %14, label %15, label %16

15:                                               ; preds = %3
  tail call void @ERR_put_error(i32 noundef 16, i32 noundef 0, i32 noundef 65, ptr noundef nonnull @.str, i32 noundef 341) #6
  br label %18

16:                                               ; preds = %3
  %17 = getelementptr inbounds nuw i8, ptr %12, i64 80
  store i64 %2, ptr %17, align 8, !tbaa !55
  br label %18

18:                                               ; preds = %16, %15
  %.0 = phi i32 [ 0, %15 ], [ 1, %16 ]
  ret i32 %.0
}